target datalayout = "e-m:e-p270:32:32-p271:32:32-p272:64:64-i64:64-i128:128-f80:128-n8:16:32:64-S128"
target triple = "x86_64-pc-linux-gnu"

%struct.Expr = type { i32 }
%struct.Const = type { %struct.Expr, i32, i32, i32, i32, i64, i8, i8, i32 }

; Function Attrs: nounwind uwtable
define internal zeroext i1 @_equalConst(ptr noundef %0, ptr noundef %1) #0 {
  %3 = alloca i1, align 1
  %4 = alloca ptr, align 8
  %5 = alloca ptr, align 8
  store ptr %0, ptr %4, align 8
  store ptr %1, ptr %5, align 8
  br label %6

6:                                                ; preds = %2
  %7 = load ptr, ptr %4, align 8
  %8 = getelementptr inbounds nuw %struct.Const, ptr %7, i32 0, i32 1
  %9 = load i32, ptr %8, align 4
  %10 = load ptr, ptr %5, align 8
  %11 = getelementptr inbounds nuw %struct.Const, ptr %10, i32 0, i32 1
  %12 = load i32, ptr %11, align 4
  %13 = icmp ne i32 %9, %12
  br i1 %13, label %14, label %15

14:                                               ; preds = %6
  store i1 false, ptr %3, align 1
  br label %100

15:                                               ; preds = %6
  br label %16

16:                                               ; preds = %15
  br label %17

17:                                               ; preds = %16
  %18 = load ptr, ptr %4, align 8
  %19 = getelementptr inbounds nuw %struct.Const, ptr %18, i32 0, i32 2
  %20 = load i32, ptr %19, align 8
  %21 = load ptr, ptr %5, align 8
  %22 = getelementptr inbounds nuw %struct.Const, ptr %21, i32 0, i32 2
  %23 = load i32, ptr %22, align 8
  %24 = icmp ne i32 %20, %23
  br i1 %24, label %25, label %26

25:                                               ; preds = %17
  store i1 false, ptr %3, align 1
  br label %100

26:                                               ; preds = %17
  br label %27

27:                                               ; preds = %26
  br label %28

28:                                               ; preds = %27
  %29 = load ptr, ptr %4, align 8
  %30 = getelementptr inbounds nuw %struct.Const, ptr %29, i32 0, i32 3
  %31 = load i32, ptr %30, align 4
  %32 = load ptr, ptr %5, align 8
  %33 = getelementptr inbounds nuw %struct.Const, ptr %32, i32 0, i32 3
  %34 = load i32, ptr %33, align 4
  %35 = icmp ne i32 %31, %34
  br i1 %35, label %36, label %37

36:                                               ; preds = %28
  store i1 false, ptr %3, align 1
  br label %100

37:                                               ; preds = %28
  br label %38

38:                                               ; preds = %37
  br label %39

39:                                               ; preds = %38
  %40 = load ptr, ptr %4, align 8
  %41 = getelementptr inbounds nuw %struct.Const, ptr %40, i32 0, i32 4
  %42 = load i32, ptr %41, align 8
  %43 = load ptr, ptr %5, align 8
  %44 = getelementptr inbounds nuw %struct.Const, ptr %43, i32 0, i32 4
  %45 = load i32, ptr %44, align 8
  %46 = icmp ne i32 %42, %45
  br i1 %46, label %47, label %48

47:                                               ; preds = %39
  store i1 false, ptr %3, align 1
  br label %100

48:                                               ; preds = %39
  br label %49

49:                                               ; preds = %48
  br label %50

50:                                               ; preds = %49
  %51 = load ptr, ptr %4, align 8
  %52 = getelementptr inbounds nuw %struct.Const, ptr %51, i32 0, i32 6
  %53 = load i8, ptr %52, align 8, !range !4, !noundef !5
  %54 = trunc i8 %53 to i1
  %55 = zext i1 %54 to i32
  %56 = load ptr, ptr %5, align 8
  %57 = getelementptr inbounds nuw %struct.Const, ptr %56, i32 0, i32 6
  %58 = load i8, ptr %57, align 8, !range !4, !noundef !5
  %59 = trunc i8 %58 to i1
  %60 = zext i1 %59 to i32
  %61 = icmp ne i32 %55, %60
  br i1 %61, label %62, label %63

62:                                               ; preds = %50
  store i1 false, ptr %3, align 1
  br label %100

63:                                               ; preds = %50
  br label %64

64:                                               ; preds = %63
  br label %65

65:                                               ; preds = %64
  %66 = load ptr, ptr %4, align 8
  %67 = getelementptr inbounds nuw %struct.Const, ptr %66, i32 0, i32 7
  %68 = load i8, ptr %67, align 1, !range !4, !noundef !5
  %69 = trunc i8 %68 to i1
  %70 = zext i1 %69 to i32
  %71 = load ptr, ptr %5, align 8
  %72 = getelementptr inbounds nuw %struct.Const, ptr %71, i32 0, i32 7
  %73 = load i8, ptr %72, align 1, !range !4, !noundef !5
  %74 = trunc i8 %73 to i1
  %75 = zext i1 %74 to i32
  %76 = icmp ne i32 %70, %75
  br i1 %76, label %77, label %78

77:                                               ; preds = %65
  store i1 false, ptr %3, align 1
  br label %100

78:                                               ; preds = %65
  br label %79

79:                                               ; preds = %78
  %80 = load ptr, ptr %4, align 8
  %81 = getelementptr inbounds nuw %struct.Const, ptr %80, i32 0, i32 6
  %82 = load i8, ptr %81, align 8, !range !4, !noundef !5
  %83 = trunc i8 %82 to i1
  br i1 %83, label %84, label %85

84:                                               ; preds = %79
  store i1 true, ptr %3, align 1
  br label %100

85:                                               ; preds = %79
  %86 = load ptr, ptr %4, align 8
  %87 = getelementptr inbounds nuw %struct.Const, ptr %86, i32 0, i32 5
  %88 = load i64, ptr %87, align 8
  %89 = load ptr, ptr %5, align 8
  %90 = getelementptr inbounds nuw %struct.Const, ptr %89, i32 0, i32 5
  %91 = load i64, ptr %90, align 8
  %92 = load ptr, ptr %4, align 8
  %93 = getelementptr inbounds nuw %struct.Const, ptr %92, i32 0, i32 7
  %94 = load i8, ptr %93, align 1, !range !4, !noundef !5
  %95 = trunc i8 %94 to i1
  %96 = load ptr, ptr %4, align 8
  %97 = getelementptr inbounds nuw %struct.Const, ptr %96, i32 0, i32 4
  %98 = load i32, ptr %97, align 8
  %99 = call zeroext i1 @datumIsEqual(i64 noundef %88, i64 noundef %91, i1 noundef zeroext %95, i32 noundef %98)
  store i1 %99, ptr %3, align 1
  br label %100

100:                                              ; preds = %85, %84, %77, %62, %47, %36, %25, %14
  %101 = load i1, ptr %3, align 1
  ret i1 %101
}