; Function Attrs: nounwind uwtable
define internal fastcc zeroext i1 @_equalConst(ptr noundef nonnull readonly captures(none) %0, ptr noundef nonnull readonly captures(none) %1) unnamed_addr #0 {
  %3 = getelementptr inbounds nuw i8, ptr %0, i64 4
  %4 = load i32, ptr %3, align 4
  %5 = getelementptr inbounds nuw i8, ptr %1, i64 4
  %6 = load i32, ptr %5, align 4
  %.not = icmp eq i32 %4, %6
  br i1 %.not, label %7, label %40

7:                                                ; preds = %2
  %8 = getelementptr inbounds nuw i8, ptr %0, i64 8
  %9 = load i32, ptr %8, align 8
  %10 = getelementptr inbounds nuw i8, ptr %1, i64 8
  %11 = load i32, ptr %10, align 8
  %.not19 = icmp eq i32 %9, %11
  br i1 %.not19, label %12, label %40

12:                                               ; preds = %7
  %13 = getelementptr inbounds nuw i8, ptr %0, i64 12
  %14 = load i32, ptr %13, align 4
  %15 = getelementptr inbounds nuw i8, ptr %1, i64 12
  %16 = load i32, ptr %15, align 4
  %.not20 = icmp eq i32 %14, %16
  br i1 %.not20, label %17, label %40

17:                                               ; preds = %12
  %18 = getelementptr inbounds nuw i8, ptr %0, i64 16
  %19 = load i32, ptr %18, align 8
  %20 = getelementptr inbounds nuw i8, ptr %1, i64 16
  %21 = load i32, ptr %20, align 8
  %.not21 = icmp eq i32 %19, %21
  br i1 %.not21, label %22, label %40

22:                                               ; preds = %17
  %23 = getelementptr inbounds nuw i8, ptr %0, i64 32
  %24 = load i8, ptr %23, align 8, !range !4, !noundef !5
  %25 = getelementptr inbounds nuw i8, ptr %1, i64 32
  %26 = load i8, ptr %25, align 8, !range !4, !noundef !5
  %.not22 = icmp eq i8 %24, %26
  br i1 %.not22, label %27, label %40

27:                                               ; preds = %22
  %28 = trunc nuw i8 %24 to i1
  %29 = getelementptr inbounds nuw i8, ptr %0, i64 33
  %30 = load i8, ptr %29, align 1, !range !4, !noundef !5
  %31 = getelementptr inbounds nuw i8, ptr %1, i64 33
  %32 = load i8, ptr %31, align 1, !range !4, !noundef !5
  %.not23 = icmp ne i8 %30, %32
  %brmerge = select i1 %.not23, i1 true, i1 %28
  %not..not23 = xor i1 %.not23, true
  br i1 %brmerge, label %40, label %33

33:                                               ; preds = %27
  %34 = trunc nuw i8 %30 to i1
  %35 = getelementptr inbounds nuw i8, ptr %0, i64 24
  %36 = load i64, ptr %35, align 8
  %37 = getelementptr inbounds nuw i8, ptr %1, i64 24
  %38 = load i64, ptr %37, align 8
  %39 = tail call zeroext i1 @datumIsEqual(i64 noundef %36, i64 noundef %38, i1 noundef zeroext %34, i32 noundef %19) #9
  br label %40

40:                                               ; preds = %27, %22, %17, %12, %7, %2, %33
  %.0 = phi i1 [ %39, %33 ], [ false, %2 ], [ false, %7 ], [ false, %12 ], [ false, %17 ], [ false, %22 ], [ %not..not23, %27 ]
  ret i1 %.0
}